; Function Attrs: mustprogress nofree norecurse nosync nounwind willreturn memory(argmem: read) uwtable
define dso_local noundef zeroext i1 @_ZNK4Luau14NormalizedType12hasFunctionsEv(ptr noundef nonnull readonly align 8 captures(none) dereferenceable(401) %0) local_unnamed_addr #7 align 2 {
  %2 = getelementptr inbounds nuw i8, ptr %0, i64 264
  %3 = load i8, ptr %2, align 8, !tbaa !102, !range !34, !noundef !35
  %4 = trunc nuw i8 %3 to i1
  %5 = getelementptr inbounds nuw i8, ptr %0, i64 312
  %6 = load ptr, ptr %5, align 8
  %7 = getelementptr inbounds nuw i8, ptr %0, i64 320
  %8 = load ptr, ptr %7, align 8
  %9 = icmp ne ptr %6, %8
  %.not1 = select i1 %4, i1 true, i1 %9
  ret i1 %.not1
}